; Function Attrs: null_pointer_is_valid sspstrong uwtable
define hidden i32 @dissect_p1_mts_apdu(ptr noundef %0, ptr noundef %1, ptr noundef %2, ptr readnone captures(none) %3) #0 {
  %5 = alloca i32, align 4
  %6 = alloca %struct._asn1_ctx_t, align 8
  call void @llvm.lifetime.start.p0(i64 208, ptr nonnull %6) #5
  call void @asn1_ctx_init(ptr noundef nonnull %6, i32 noundef 0, i1 noundef zeroext true, ptr noundef %1)
  %7 = getelementptr inbounds nuw i8, ptr %6, i64 136
  %8 = load ptr, ptr %7, align 8
  %9 = icmp eq ptr %8, null
  br i1 %9, label %10, label %p1_initialize_content_globals.exit

10:                                               ; preds = %4
  %11 = getelementptr inbounds nuw i8, ptr %6, i64 16
  %12 = load ptr, ptr %11, align 8
  %13 = getelementptr inbounds nuw i8, ptr %12, i64 408
  %14 = load ptr, ptr %13, align 8
  %15 = call noalias dereferenceable_or_null(32) ptr @wmem_alloc0(ptr noundef %14, i64 noundef 32) #6
  store ptr %15, ptr %7, align 8
  br label %p1_initialize_content_globals.exit

p1_initialize_content_globals.exit:               ; preds = %4, %10
  %16 = phi ptr [ %15, %10 ], [ %8, %4 ]
  %17 = getelementptr inbounds nuw i8, ptr %6, i64 128
  store ptr %2, ptr %17, align 8
  %18 = getelementptr inbounds nuw i8, ptr %6, i64 72
  store ptr null, ptr %18, align 8
  %19 = getelementptr inbounds nuw i8, ptr %16, i64 8
  store ptr null, ptr %19, align 8
  %20 = getelementptr inbounds nuw i8, ptr %16, i64 16
  store i8 1, ptr %20, align 8
  %.not = icmp eq ptr %2, null
  br i1 %.not, label %26, label %21

21:                                               ; preds = %p1_initialize_content_globals.exit
  %22 = load i32, ptr @proto_p1, align 4
  %23 = call ptr @proto_tree_add_item(ptr noundef nonnull %2, i32 noundef %22, ptr noundef %0, i32 noundef 0, i32 noundef -1, i32 noundef 0)
  %24 = load i32, ptr @ett_p1, align 4
  %25 = call ptr @proto_item_add_subtree(ptr noundef %23, i32 noundef %24)
  br label %26

26:                                               ; preds = %21, %p1_initialize_content_globals.exit
  %.0 = phi ptr [ %25, %21 ], [ null, %p1_initialize_content_globals.exit ]
  %27 = getelementptr inbounds nuw i8, ptr %1, i64 8
  %28 = load ptr, ptr %27, align 8
  call void @col_set_str(ptr noundef %28, i32 noundef 35, ptr noundef nonnull @.str.113)
  %29 = load ptr, ptr %27, align 8
  call void @col_set_str(ptr noundef %29, i32 noundef 25, ptr noundef nonnull @.str.114)
  %30 = load i32, ptr @hf_p1_MTS_APDU_PDU, align 4
  call void @llvm.lifetime.start.p0(i64 4, ptr nonnull %5) #5
  store i32 -1, ptr %5, align 4
  %31 = load i32, ptr @ett_p1_MTS_APDU, align 4
  %32 = call i32 @dissect_ber_choice(ptr noundef nonnull %6, ptr noundef %.0, ptr noundef %0, i32 noundef 0, ptr noundef nonnull @MTS_APDU_choice, i32 noundef %30, i32 noundef %31, ptr noundef nonnull %5)
  %33 = load i32, ptr %5, align 4
  %.not.i = icmp eq i32 %33, -1
  br i1 %.not.i, label %dissect_p1_MTS_APDU.exit, label %34

34:                                               ; preds = %26
  %35 = sext i32 %33 to i64
  %36 = getelementptr [4 x %struct._value_string], ptr @p1_MTS_APDU_vals, i64 0, i64 %35, i32 1
  %37 = load ptr, ptr %36, align 8
  %38 = icmp ne ptr %37, null
  %39 = icmp ne i32 %33, 0
  %or.cond.i = and i1 %39, %38
  br i1 %or.cond.i, label %40, label %dissect_p1_MTS_APDU.exit

40:                                               ; preds = %34
  %41 = getelementptr inbounds nuw i8, ptr %6, i64 16
  %42 = load ptr, ptr %41, align 8
  %43 = getelementptr inbounds nuw i8, ptr %42, i64 8
  %44 = load ptr, ptr %43, align 8
  call void (ptr, i32, ptr, ...) @col_append_fstr(ptr noundef %44, i32 noundef 25, ptr noundef nonnull @.str.3, ptr noundef nonnull %37)
  br label %dissect_p1_MTS_APDU.exit

dissect_p1_MTS_APDU.exit:                         ; preds = %26, %34, %40
  call void @llvm.lifetime.end.p0(i64 4, ptr nonnull %5) #5
  %45 = load ptr, ptr %7, align 8
  %46 = icmp eq ptr %45, null
  br i1 %46, label %47, label %p1_initialize_content_globals.exit12

47:                                               ; preds = %dissect_p1_MTS_APDU.exit
  %48 = getelementptr inbounds nuw i8, ptr %6, i64 16
  %49 = load ptr, ptr %48, align 8
  %50 = getelementptr inbounds nuw i8, ptr %49, i64 408
  %51 = load ptr, ptr %50, align 8
  %52 = call noalias dereferenceable_or_null(32) ptr @wmem_alloc0(ptr noundef %51, i64 noundef 32) #6
  store ptr %52, ptr %7, align 8
  br label %p1_initialize_content_globals.exit12

p1_initialize_content_globals.exit12:             ; preds = %dissect_p1_MTS_APDU.exit, %47
  %53 = phi ptr [ %52, %47 ], [ %45, %dissect_p1_MTS_APDU.exit ]
  store ptr null, ptr %17, align 8
  store ptr null, ptr %18, align 8
  %54 = getelementptr inbounds nuw i8, ptr %53, i64 8
  store ptr null, ptr %54, align 8
  %55 = getelementptr inbounds nuw i8, ptr %53, i64 16
  store i8 0, ptr %55, align 8
  %56 = call i32 @tvb_captured_length(ptr noundef %0)
  call void @llvm.lifetime.end.p0(i64 208, ptr nonnull %6) #5
  ret i32 %56
}